


ARM Macro Assembler    Page 1 


    1 00000000         ; @Author: æ±Ÿå°é‰´ abyss_er@163.com
    2 00000000         ; @Date: 2024-09-18 14:56:45
    3 00000000         ; @LastEditors: æ±Ÿå°é‰´ abyss_er@163.com
    4 00000000         ; @LastEditTime: 2024-09-26 13:10:46
    5 00000000         ; @FilePath: \jdos\jd_Cortex-M3.s
    6 00000000         ; @Description: æ±‡ç¼–æ–‡ä»¶
    7 00000000         
    8 00000000 E000ED04 
                       JD_ICRS EQU              0XE000ED04  ;ä¸­æ–­æ§åˆ¶åŠçŠ¶
                                                            æ€å¯„å­˜å™¨
    9 00000000 E000ED23 
                       JD_PRI_14
                               EQU              0XE000ED23  ;PendSVçš„ä¼˜å…ˆçº§
                                                            è®¾ç½®å¯„å­˜å™¨
   10 00000000 E000E010 
                       JD_SYSTICK_CTRL
                               EQU              0xE000E010  ;SysTickæ§åˆ¶åŠçŠ
                                                            ¶æ€å¯„å­˜å™¨
   11 00000000         
   12 00000000                 IMPORT           jd_task_stack_sp
   13 00000000                 IMPORT           jd_task_next_stack_sp
   14 00000000                 IMPORT           jd_task_entry
   15 00000000                 IMPORT           jd_task_exit_entry
   16 00000000                 AREA             |.text|, CODE, READONLY, ALIGN=
3
   17 00000000         
   18 00000000         
   19 00000000         
   20 00000000         jd_asm_task_first_switch
                               PROC                         ;è¿›å…¥main
   21 00000000                 EXPORT           jd_asm_task_first_switch
   22 00000000 B672            CPSID            i           ;å…³ä¸­æ–­
   23 00000002         
   24 00000002         ;è®¾ç½®PendSVçš„ä¼˜å…ˆçº§ä¸º255
   25 00000002 4B2E            LDR              R3,=JD_PRI_14
   26 00000004 F04F 02FF       LDR              R2,=0X000000FF
   27 00000008 601A            STR              R2,[R3]
   28 0000000A         
   29 0000000A         ;ç¬¬ä¸€æ¬¡è¿›å…¥ä»»åŠ¡ï¼Œä¸»è¦ç›®çš„æ˜¯å®šä½å †æ ˆï¼Œè
                       ¿›å…¥ç¨‹åºå…¥å£ï¼Œå…¶ä»–æ•°æ®æ— ç”¨
   30 0000000A 6800            LDR              R0,[R0]
   31 0000000C 4685            MOV              SP,R0
   32 0000000E 468E            MOV              LR,R1
   33 00000010         
   34 00000010         ;MOV R0, #0x3 ; è®¾ç½®CONTROLå¯„å­˜å™¨ï¼Œè®©ç”¨æˆ·ç¨‹åº
                       ä½¿ç”¨PSPï¼Œæ²¡æœ‰å†…å­˜ç®¡ç†ï¼ŒPSPæ¨¡å¼ä¸‹æ— æ³•åˆ†é…
                       ç³»ç»Ÿç©ºé—´
   35 00000010         ;MSR CONTROL,R0
   36 00000010         ;ORR LR,#0XD ; åˆ‡æ¢åˆ°ç”¨æˆ·æ ˆæŒ‡é’ˆ
   37 00000010 B662            CPSIE            i           ;å¼€ä¸­æ–­
   38 00000012 4770            BX               LR
   39 00000014                 ENDP
   40 00000014         
   41 00000014         jd_asm_task_exit_switch
                               PROC                         ;ä»»åŠ¡ç»“æŸè¿è¡Œ
                                                            ï¼ˆæ²¡æœ‰whileï¼‰ï¼
                                                            Œåˆ‡æ¢ä¸‹ä¸€ä¸ªä»»
                                                            åŠ¡
   42 00000014                 EXPORT           jd_asm_task_exit_switch



ARM Macro Assembler    Page 2 


   43 00000014 B672            CPSID            i           ;å…³ä¸­æ–­
   44 00000016         
   45 00000016         ; æ­¤å¤„åº”è¯¥ç¡¬æ€§æ”¹å˜å †æ ˆä¸­LRä¸PCçš„ï¼Œç›¸å½“äº
                       å›å¤ç¬¬ä¸€æ¬¡æ‰§è¡Œçš„ç¨‹åºå…¥å£æ•°æ®
   46 00000016 492A            LDR              R1,=jd_task_entry ;æ­¤æ¬¡ç¨‹åº
                                                            çš„å…¥å£åœ°å€
   47 00000018 6809            LDR              R1,[R1]
   48 0000001A         
   49 0000001A 4A2A            LDR              R2,=jd_task_exit_entry ;æ­¤æ¬¡ç
                                                            ¨‹åºçš„exitçš„å…¥å
                                                            £åœ°å€
   50 0000001C 6812            LDR              R2,[R2]
   51 0000001E         
   52 0000001E 482A            LDR              R0,=jd_task_stack_sp ;æ­¤æ¬¡ä»»
                                                            åŠ¡çš„æ ˆæŒ‡é’ˆ
   53 00000020 6800            LDR              R0,[R0]
   54 00000022 6800            LDR              R0,[R0]
   55 00000024 6381            STR              R1,[R0,#56]
   56 00000026 6342            STR              R2,[R0,#52]
   57 00000028         
   58 00000028         ;å–ä¸‹ä¸€ä¸ªä»»åŠ¡çš„å †æ ˆæŒ‡é’ˆ,æ¢å¤ç°åœº
   59 00000028 4928            LDR              R1,=jd_task_next_stack_sp
   60 0000002A 6809            LDR              R1,[R1]
   61 0000002C 6808            LDR              R0,[R1]
   62 0000002E E8B0 0FF0       LDMFD            R0!,{R4-R11}
   63 00000032 4685            MOV              SP,R0
   64 00000034         
   65 00000034         ;MOV R0, #0x3 ; è®¾ç½®CONTROLå¯„å­˜å™¨ï¼Œè®©ç”¨æˆ·ç¨‹åº
                       ä½¿ç”¨PSPï¼Œæ²¡æœ‰å†…å­˜ç®¡ç†ï¼ŒPSPæ¨¡å¼ä¸‹æ— æ³•åˆ†é…
                       ç³»ç»Ÿç©ºé—´
   66 00000034         ;MSR CONTROL,R0
   67 00000034         ;ORR LR,#0XD ; åˆ‡æ¢åˆ°ç”¨æˆ·æ ˆæŒ‡é’ˆ
   68 00000034 B662            CPSIE            i           ;å¼€ä¸­æ–­
   69 00000036 4770            BX               LR
   70 00000038                 ENDP
   71 00000038         
   72 00000038         
   73 00000038         jd_asm_svc_handler
                               PROC                         ;SVCå¤„ç†
   74 00000038                 EXPORT           jd_asm_svc_handler
   75 00000038         
   76 00000038 F01E 0F04       TST              LR, #0x4    ; æµ‹è¯•EXC_RETURNç
                                                            š„æ¯”ç‰¹2
   77 0000003C BF0C            ITE              EQ          ; å¦‚æœä¸º0,
   78 0000003E F3EF 8008       MRSEQ            R0, MSP     ; åˆ™ä½¿ç”¨çš„æ˜¯ä¸
                                                            »å †æ ˆï¼Œæ•…æŠŠMSP
                                                            çš„å€¼å–å‡º
   79 00000042 F3EF 8009       MRSNE            R0, PSP     ; å¦åˆ™, ä½¿ç”¨çš„
                                                            æ˜¯è¿›ç¨‹å †æ ˆï¼Œæ
                                                            •…æŠŠMSPçš„å€¼å–å‡
                                                            º
   80 00000046         ;  è·å–è¿”å›åœ°å€ (åŸç†æ˜¯ä¸å‘ç”Ÿå¼‚å¸¸æ—¶ç¡¬ä»¶
                       å‹æ ˆçš„é¡ºåºç›¸å…³)
   81 00000046         ;  è¿™é‡Œè·å¾—è¿”å›åœ°å€çš„åŸå› æ˜¯ä¸ºäº†å®šä½äº§ç”
                       Ÿå¼‚å¸¸å‰æ‰§è¡Œçš„æœ€åä¸€æ¡æŒ‡ä»¤ï¼Œä¹Ÿå°±æ˜¯SVCæŒ‡ä
                       »¤
   82 00000046 6981            LDR              R1, [R0, #24]
   83 00000048         
   84 00000048         ; è·å–SVCæŒ‡ä»¤çš„ä½8ä½ï¼Œä¹Ÿå°±æ˜¯ç³»ç»Ÿè°ƒç”¨å·ï¼



ARM Macro Assembler    Page 3 


                       Œè¿”å›åœ°å€çš„ä¸Šä¸€æ¡å°±æ˜¯SVCæŒ‡ä»¤ï¼Œè·å–çš„æ˜¯æ
                       œºå™¨ç 
   85 00000048 F811 1C02       LDRB             R1, [R1, #-2]
   86 0000004C         
   87 0000004C         ;svc_0æœåŠ¡ï¼Œä»»åŠ¡è‡ªåŠ¨åˆ‡æ¢ä¸‹ä¸€ä¸ªä»»åŠ¡
   88 0000004C 2900            CMP              R1, #0
   89 0000004E D002            BEQ              svc_handler_0
   90 00000050         
   91 00000050         ;svc_1æœåŠ¡ï¼Œä»»åŠ¡ä¸­æ²¡æœ‰whileå¾ªç¯ï¼Œæ‰§è¡Œå®Œæˆ
                       åé€€å‡ºï¼Œéœ€è¦ç³»ç»Ÿå¯¹ä»»åŠ¡è¿›è¡Œæ“ä½œ
   92 00000050 2901            CMP              R1, #1
   93 00000052 D002            BEQ              svc_handler_1
   94 00000054 4770            BX               LR
   95 00000056         svc_handler_0
   96 00000056 E7FE            B                jd_asm_pendsv_handler 
                                                            ;æ­£å¸¸åˆ‡æ¢
   97 00000058 4770            BX               LR
   98 0000005A         svc_handler_1
   99 0000005A E7FE            B                jd_asm_task_exit_switch
  100 0000005C 4770            BX               LR
  101 0000005E                 ENDP
  102 0000005E         
  103 0000005E         jd_asm_svc_task_switch
                               PROC                         ;SVC call
  104 0000005E                 EXPORT           jd_asm_svc_task_switch
  105 0000005E B662            CPSIE            i           ;å¼€ä¸­æ–­
  106 00000060 DF00            SVC              0
  107 00000062 4770            BX               LR
  108 00000064                 ENDP
  109 00000064         
  110 00000064         jd_asm_svc_task_exit
                               PROC                         ;SVC call
  111 00000064                 EXPORT           jd_asm_svc_task_exit
  112 00000064 B662            CPSIE            i           ;å¼€ä¸­æ–­
  113 00000066 DF01            SVC              1
  114 00000068 4770            BX               LR
  115 0000006A                 ENDP
  116 0000006A         
  117 0000006A         
  118 0000006A         jd_asm_systick_init
                               PROC                         ;systickåˆå§‹åŒ–ï¼
                                                            Œhalåº“å·²ç»åˆå§‹
                                                            åŒ–ï¼Œè¿™é‡Œä¸å¯è
                                                            °ƒç”¨
  119 0000006A                 EXPORT           jd_asm_systick_init
  120 0000006A B672            CPSID            i           ;å…³ä¸­æ–­
  121 0000006C         
  122 0000006C 4818            LDR              R0, =JD_SYSTICK_CTRL ; åŠ è½½JD
                                                            _SYSTICK_CTRLçš„åœ°
                                                            å€
  123 0000006E F04F 0100       MOV              R1, #0
  124 00000072 6001            STR              R1, [R0]    ; å…ˆåœæ­¢SysTickï
                                                            ¼Œä»¥é˜²æ„å¤–äº§ç”
                                                            Ÿå¼‚å¸¸è¯·æ±‚
  125 00000074         
  126 00000074 F240 31FF       LDR              R1, =0x3FF  ; è®©SysTickæ¯1024
                                                            å‘¨æœŸè®¡å®Œä¸€æ¬¡ã
                                                            €‚
  127 00000078 6041            STR              R1, [R0,#4] ; å†™å…¥é‡è£…è½½çš



ARM Macro Assembler    Page 4 


                                                            „å€¼
  128 0000007A 6081            STR              R1, [R0,#8] ; å¾€STCVRä¸­å†™ä»»
                                                            æ„çš„æ•°ï¼Œä»¥ç¡®ä
                                                            ¿æ¸…é™¤COUNTFLAGæ 
                                                            ‡å¿—
  129 0000007C         
  130 0000007C F04F 0107       MOV              R1, #0x7    ; é€‰æ‹©FCLKä½œä¸ºæ
                                                            —¶é’Ÿæºï¼Œå¹¶ä½¿èƒ
                                                            ½SysTickåŠå…¶å¼‚å¸
                                                            ¸è¯·æ±‚
  131 00000080 6001            STR              R1, [R0]    ; å†™å…¥æ•°å€¼ï¼Œå¼
                                                            €å¯å®šæ—¶å™¨
  132 00000082         
  133 00000082 B662            CPSIE            i           ;å¼€ä¸­æ–­
  134 00000084 4770            BX               LR
  135 00000086                 ENDP
  136 00000086         
  137 00000086         jd_asm_cps_disable
                               PROC                         ;é™¤èƒ½åœ¨ NMI å’Œç
                                                            ¡¬ fault ä¹‹å¤–çš„æ
                                                            ‰€æœ‰å¼‚å¸¸
  138 00000086                 EXPORT           jd_asm_cps_disable
  139 00000086 B672            CPSID            i           ;å…³ä¸­æ–­
  140 00000088 4770            BX               LR          ;
  141 0000008A                 ENDP
  142 0000008A         
  143 0000008A         jd_asm_cps_enable
                               PROC                         ;ä½¿èƒ½ä¸­æ–­
  144 0000008A                 EXPORT           jd_asm_cps_enable
  145 0000008A B662            CPSIE            i           ;å¼€ä¸­æ–­
  146 0000008C 4770            BX               LR          ;
  147 0000008E                 ENDP
  148 0000008E         
  149 0000008E         jd_asm_pendsv_putup
                               PROC                         ;æ‚¬æŒ‚PendSVå¼‚å¸¸
                                                            
  150 0000008E                 EXPORT           jd_asm_pendsv_putup
  151 0000008E B672            CPSID            i           ;å…³ä¸­æ–­
  152 00000090         
  153 00000090 4810            LDR              R0,=JD_ICRS
  154 00000092 F04F 5180       LDR              R1,=0X10000000
  155 00000096 6001            STR              R1,[R0]
  156 00000098         
  157 00000098 B662            CPSIE            i           ;å¼€ä¸­æ–­
  158 0000009A 4770            BX               LR
  159 0000009C                 ENDP
  160 0000009C         
  161 0000009C         jd_asm_pendsv_handler
                               PROC                         ;åˆ‡æ¢ä¸Šä¸‹æ–‡
  162 0000009C                 EXPORT           jd_asm_pendsv_handler
  163 0000009C B672            CPSID            i           ;å…³ä¸­æ–­
  164 0000009E         
  165 0000009E 4668            MOV              R0,SP
  166 000000A0 E920 0FF0       STMFD            R0!,{R4-R11}
  167 000000A4         
  168 000000A4         ;ä¿æŠ¤ç°åœºï¼Œå°†å †æ ˆæŒ‡é’ˆä¼ å‡º
  169 000000A4 4908            LDR              R1,=jd_task_stack_sp
  170 000000A6 6809            LDR              R1,[R1]
  171 000000A8 6008            STR              R0,[R1]



ARM Macro Assembler    Page 5 


  172 000000AA         
  173 000000AA         ;å–ä¸‹ä¸€ä¸ªä»»åŠ¡çš„å †æ ˆæŒ‡é’ˆ,æ¢å¤ç°åœº
  174 000000AA 4908            LDR              R1,=jd_task_next_stack_sp
  175 000000AC 6809            LDR              R1,[R1]
  176 000000AE 6808            LDR              R0,[R1]
  177 000000B0 E8B0 0FF0       LDMFD            R0!,{R4-R11}
  178 000000B4 4685            MOV              SP,R0
  179 000000B6         
  180 000000B6         ;ORR LR,#0XD ; åˆ‡æ¢åˆ°ç”¨æˆ·æ ˆæŒ‡é’ˆ
  181 000000B6 B662            CPSIE            i           ;å¼€ä¸­æ–­
  182 000000B8 4770            BX               LR
  183 000000BA                 ENDP
  184 000000BA         ;é˜²æ­¢ç¼–è¯‘å™¨æŠ¥è­¦
  185 000000BA BF00            NOP
  186 000000BC                 END
              E000ED23 
              00000000 
              00000000 
              00000000 
              00000000 
              E000E010 
              E000ED04 
Command Line: --debug --xref --diag_suppress=9931 --cpu=Cortex-M3 --apcs=interw
ork --depend=jdos\jd_cortex-m3.d -ojdos\jd_cortex-m3.o -I.\RTE\_jdos -ID:\Keil_
V5\Packs\ARM\CMSIS\5.5.1\CMSIS\Core\Include -ID:\Keil_V5\Packs\Keil\STM32F1xx_D
FP\2.3.0\Device\Include --predefine="__UVISION_VERSION SETA 528" --predefine="_
RTE_ SETA 1" --predefine="STM32F10X_HD SETA 1" --list=jd_cortex-m3.lst ..\jd_Co
rtex-M3.s



ARM Macro Assembler    Page 1 Alphabetic symbol ordering
Relocatable symbols

.text 00000000

Symbol: .text
   Definitions
      At line 16 in file ..\jd_Cortex-M3.s
   Uses
      None
Comment: .text unused
jd_asm_cps_disable 00000086

Symbol: jd_asm_cps_disable
   Definitions
      At line 137 in file ..\jd_Cortex-M3.s
   Uses
      At line 138 in file ..\jd_Cortex-M3.s
Comment: jd_asm_cps_disable used once
jd_asm_cps_enable 0000008A

Symbol: jd_asm_cps_enable
   Definitions
      At line 143 in file ..\jd_Cortex-M3.s
   Uses
      At line 144 in file ..\jd_Cortex-M3.s
Comment: jd_asm_cps_enable used once
jd_asm_pendsv_handler 0000009C

Symbol: jd_asm_pendsv_handler
   Definitions
      At line 161 in file ..\jd_Cortex-M3.s
   Uses
      At line 96 in file ..\jd_Cortex-M3.s
      At line 162 in file ..\jd_Cortex-M3.s

jd_asm_pendsv_putup 0000008E

Symbol: jd_asm_pendsv_putup
   Definitions
      At line 149 in file ..\jd_Cortex-M3.s
   Uses
      At line 150 in file ..\jd_Cortex-M3.s
Comment: jd_asm_pendsv_putup used once
jd_asm_svc_handler 00000038

Symbol: jd_asm_svc_handler
   Definitions
      At line 73 in file ..\jd_Cortex-M3.s
   Uses
      At line 74 in file ..\jd_Cortex-M3.s
Comment: jd_asm_svc_handler used once
jd_asm_svc_task_exit 00000064

Symbol: jd_asm_svc_task_exit
   Definitions
      At line 110 in file ..\jd_Cortex-M3.s
   Uses
      At line 111 in file ..\jd_Cortex-M3.s
Comment: jd_asm_svc_task_exit used once
jd_asm_svc_task_switch 0000005E




ARM Macro Assembler    Page 2 Alphabetic symbol ordering
Relocatable symbols

Symbol: jd_asm_svc_task_switch
   Definitions
      At line 103 in file ..\jd_Cortex-M3.s
   Uses
      At line 104 in file ..\jd_Cortex-M3.s
Comment: jd_asm_svc_task_switch used once
jd_asm_systick_init 0000006A

Symbol: jd_asm_systick_init
   Definitions
      At line 118 in file ..\jd_Cortex-M3.s
   Uses
      At line 119 in file ..\jd_Cortex-M3.s
Comment: jd_asm_systick_init used once
jd_asm_task_exit_switch 00000014

Symbol: jd_asm_task_exit_switch
   Definitions
      At line 41 in file ..\jd_Cortex-M3.s
   Uses
      At line 42 in file ..\jd_Cortex-M3.s
      At line 99 in file ..\jd_Cortex-M3.s

jd_asm_task_first_switch 00000000

Symbol: jd_asm_task_first_switch
   Definitions
      At line 20 in file ..\jd_Cortex-M3.s
   Uses
      At line 21 in file ..\jd_Cortex-M3.s
Comment: jd_asm_task_first_switch used once
svc_handler_0 00000056

Symbol: svc_handler_0
   Definitions
      At line 95 in file ..\jd_Cortex-M3.s
   Uses
      At line 89 in file ..\jd_Cortex-M3.s
Comment: svc_handler_0 used once
svc_handler_1 0000005A

Symbol: svc_handler_1
   Definitions
      At line 98 in file ..\jd_Cortex-M3.s
   Uses
      At line 93 in file ..\jd_Cortex-M3.s
Comment: svc_handler_1 used once
13 symbols



ARM Macro Assembler    Page 1 Alphabetic symbol ordering
Absolute symbols

JD_ICRS E000ED04

Symbol: JD_ICRS
   Definitions
      At line 8 in file ..\jd_Cortex-M3.s
   Uses
      At line 153 in file ..\jd_Cortex-M3.s
Comment: JD_ICRS used once
JD_PRI_14 E000ED23

Symbol: JD_PRI_14
   Definitions
      At line 9 in file ..\jd_Cortex-M3.s
   Uses
      At line 25 in file ..\jd_Cortex-M3.s
Comment: JD_PRI_14 used once
JD_SYSTICK_CTRL E000E010

Symbol: JD_SYSTICK_CTRL
   Definitions
      At line 10 in file ..\jd_Cortex-M3.s
   Uses
      At line 122 in file ..\jd_Cortex-M3.s
Comment: JD_SYSTICK_CTRL used once
3 symbols



ARM Macro Assembler    Page 1 Alphabetic symbol ordering
External symbols

jd_task_entry 00000000

Symbol: jd_task_entry
   Definitions
      At line 14 in file ..\jd_Cortex-M3.s
   Uses
      At line 46 in file ..\jd_Cortex-M3.s
Comment: jd_task_entry used once
jd_task_exit_entry 00000000

Symbol: jd_task_exit_entry
   Definitions
      At line 15 in file ..\jd_Cortex-M3.s
   Uses
      At line 49 in file ..\jd_Cortex-M3.s
Comment: jd_task_exit_entry used once
jd_task_next_stack_sp 00000000

Symbol: jd_task_next_stack_sp
   Definitions
      At line 13 in file ..\jd_Cortex-M3.s
   Uses
      At line 59 in file ..\jd_Cortex-M3.s
      At line 174 in file ..\jd_Cortex-M3.s

jd_task_stack_sp 00000000

Symbol: jd_task_stack_sp
   Definitions
      At line 12 in file ..\jd_Cortex-M3.s
   Uses
      At line 52 in file ..\jd_Cortex-M3.s
      At line 169 in file ..\jd_Cortex-M3.s

4 symbols
355 symbols in table
