


ARM Macro Assembler    Page 1 


    1 00000000 E000ED04 
                       JD_ICRS EQU              0XE000ED04  ;ä¸­æ–­æ§åˆ¶åŠçŠ¶
                                                            æ€å¯„å­˜å™¨
    2 00000000 E000ED23 
                       JD_PRI_14
                               EQU              0XE000ED23  ;PendSVçš„ä¼˜å…ˆçº§
                                                            è®¾ç½®å¯„å­˜å™¨
    3 00000000                 AREA             |.text|, CODE, READONLY, ALIGN=
3
    4 00000000         jd_asm_task_switch
                               PROC                         ;çº¿ç¨‹åˆ‡æ¢ï¼Œæ—©
                                                            æœŸæµ‹è¯•ç‰ˆæœ¬
    5 00000000                 EXPORT           jd_asm_task_switch
    6 00000000         ;ä¿æŠ¤ç°åœºï¼Œå°†å †æ ˆæŒ‡é’ˆä¼ å‡º
    7 00000000 E92D 5FFF       PUSH             {R0-R12,LR}
    8 00000004 F3EF 8203       MRS              R2,PSR
    9 00000008 B404            PUSH             {R2}
   10 0000000A 466A            MOV              R2,SP
   11 0000000C 6002            STR              R2,[R0]
   12 0000000E         
   13 0000000E         ;å–ä¸‹ä¸€ä¸ªä»»åŠ¡çš„å †æ ˆæŒ‡é’ˆ,æ¢å¤ç°åœº
   14 0000000E 6809            LDR              R1,[R1]
   15 00000010 468D            MOV              SP,R1
   16 00000012 BC04            POP              {R2}
   17 00000014 F382 8803       MSR              PSR,R2
   18 00000018 E8BD 5FFF       POP              {R0-R12,LR}
   19 0000001C 4770            BX               LR
   20 0000001E                 ENDP
   21 0000001E         
   22 0000001E         jd_asm_task_first_switch
                               PROC                         ;è¿›å…¥mainçº¿ç¨‹ï¼
                                                            Œæ—©æœŸæµ‹è¯•ç‰ˆæœ¬
                                                            
   23 0000001E                 EXPORT           jd_asm_task_first_switch
   24 0000001E         ;è®¾ç½®PendSVçš„ä¼˜å…ˆçº§ä¸ºæœ€ä½ä¼˜å…ˆçº§
   25 0000001E 490C            LDR              R1,=JD_PRI_14
   26 00000020 F04F 02FF       LDR              R2,=0X000000FF
   27 00000024 600A            STR              R2,[R1]
   28 00000026         
   29 00000026         ;ä¿å­˜å †æ ˆæŒ‡é’ˆåœ°å€
   30 00000026 4601            MOV              R1,R0
   31 00000028 6800            LDR              R0,[R0]
   32 0000002A E8B0 0FF0       LDMFD            R0!,{R4-R11}
   33 0000002E C83C            LDMFD            R0!,{R2-R5}
   34 00000030 F850 CB04       LDMFD            R0!,{R12}
   35 00000034 F850 EB04       LDMFD            R0!,{LR}
   36 00000038 C804            LDMFD            R0!,{R2}
   37 0000003A C804            LDMFD            R0!,{R2}
   38 0000003C 6008            STR              R0,[R1]
   39 0000003E 4770            BX               LR
   40 00000040                 ENDP
   41 00000040         
   42 00000040         jd_asm_pendsv_putup
                               PROC                         ;è§¦å‘PendSVå¼‚å¸¸
                                                            
   43 00000040                 EXPORT           jd_asm_pendsv_putup
   44 00000040 4804            LDR              R0,=JD_ICRS
   45 00000042 F04F 5180       LDR              R1,=0X10000000
   46 00000046 6001            STR              R1,[R0]



ARM Macro Assembler    Page 2 


   47 00000048 4770            BX               LR
   48 0000004A                 ENDP
   49 0000004A         
   50 0000004A         PendSV_Handler
                               PROC                         ;åˆ‡æ¢ä¸Šä¸‹æ–‡
   51 0000004A                 EXPORT           PendSV_Handler
   52 0000004A F04F 0001       MOV              R0,#01
   53 0000004E                 ENDP
                       
              00 00 E000ED23 
              E000ED04 
Command Line: --debug --xref --diag_suppress=9931 --cpu=Cortex-M3 --apcs=interw
ork --depend=jdos\jdos_1.d -ojdos\jdos_1.o -I.\RTE\_jdos -ID:\Keil_V5\Packs\ARM
\CMSIS\5.5.1\CMSIS\Core\Include -ID:\Keil_V5\Packs\Keil\STM32F1xx_DFP\2.3.0\Dev
ice\Include --predefine="__MICROLIB SETA 1" --predefine="__UVISION_VERSION SETA
 528" --predefine="_RTE_ SETA 1" --predefine="STM32F10X_HD SETA 1" --list=jdos.
lst ..\jdos.s



ARM Macro Assembler    Page 1 Alphabetic symbol ordering
Relocatable symbols

.text 00000000

Symbol: .text
   Definitions
      At line 3 in file ..\jdos.s
   Uses
      None
Comment: .text unused
PendSV_Handler 0000004A

Symbol: PendSV_Handler
   Definitions
      At line 50 in file ..\jdos.s
   Uses
      At line 51 in file ..\jdos.s
Comment: PendSV_Handler used once
jd_asm_pendsv_putup 00000040

Symbol: jd_asm_pendsv_putup
   Definitions
      At line 42 in file ..\jdos.s
   Uses
      At line 43 in file ..\jdos.s
Comment: jd_asm_pendsv_putup used once
jd_asm_task_first_switch 0000001E

Symbol: jd_asm_task_first_switch
   Definitions
      At line 22 in file ..\jdos.s
   Uses
      At line 23 in file ..\jdos.s
Comment: jd_asm_task_first_switch used once
jd_asm_task_switch 00000000

Symbol: jd_asm_task_switch
   Definitions
      At line 4 in file ..\jdos.s
   Uses
      At line 5 in file ..\jdos.s
Comment: jd_asm_task_switch used once
5 symbols



ARM Macro Assembler    Page 1 Alphabetic symbol ordering
Absolute symbols

JD_ICRS E000ED04

Symbol: JD_ICRS
   Definitions
      At line 1 in file ..\jdos.s
   Uses
      At line 44 in file ..\jdos.s
Comment: JD_ICRS used once
JD_PRI_14 E000ED23

Symbol: JD_PRI_14
   Definitions
      At line 2 in file ..\jdos.s
   Uses
      At line 25 in file ..\jdos.s
Comment: JD_PRI_14 used once
2 symbols
343 symbols in table
