


ARM Macro Assembler    Page 1 


    1 00000000 E000ED04 
                       JD_ICRS EQU              0XE000ED04  ;ä¸­æ–­æ§åˆ¶åŠçŠ¶
                                                            æ€å¯„å­˜å™¨
    2 00000000 E000ED23 
                       JD_PRI_14
                               EQU              0XE000ED23  ;PendSVçš„ä¼˜å…ˆçº§
                                                            è®¾ç½®å¯„å­˜å™¨
    3 00000000 E000E010 
                       JD_SYSTICK_CTRL
                               EQU              0xE000E010  ;SysTickæ§åˆ¶åŠçŠ
                                                            ¶æ€å¯„å­˜å™¨
    4 00000000         
    5 00000000                 IMPORT           jd_task_stack_sp
    6 00000000                 IMPORT           jd_task_next_stack_sp
    7 00000000                 AREA             |.text|, CODE, READONLY, ALIGN=
3
    8 00000000         
    9 00000000         
   10 00000000         
   11 00000000         jd_asm_task_first_switch
                               PROC                         ;è¿›å…¥main
   12 00000000                 EXPORT           jd_asm_task_first_switch
   13 00000000         
   14 00000000         ;è®¾ç½®PendSVçš„ä¼˜å…ˆçº§ä¸º255
   15 00000000 4B17            LDR              R3,=JD_PRI_14
   16 00000002 F04F 02FF       LDR              R2,=0X000000FF
   17 00000006 601A            STR              R2,[R3]
   18 00000008         
   19 00000008         ;ç¬¬ä¸€æ¬¡è¿›å…¥ä»»åŠ¡ï¼Œä¸»è¦ç›®çš„æ˜¯å®šä½å †æ ˆï¼Œè
                       ¿›å…¥ç¨‹åºå…¥å£ï¼Œå…¶ä»–æ•°æ®æ— ç”¨
   20 00000008 6800            LDR              R0,[R0]
   21 0000000A 4685            MOV              SP,R0
   22 0000000C 468E            MOV              LR,R1
   23 0000000E         
   24 0000000E B662            CPSIE            i           ;å¼€ä¸­æ–­
   25 00000010 4770            BX               LR
   26 00000012                 ENDP
   27 00000012         
   28 00000012         
   29 00000012         jd_asm_pendsv_putup
                               PROC                         ;æ‚¬æŒ‚PendSVå¼‚å¸¸
                                                            
   30 00000012                 EXPORT           jd_asm_pendsv_putup
   31 00000012 4814            LDR              R0,=JD_ICRS
   32 00000014 F04F 5180       LDR              R1,=0X10000000
   33 00000018 6001            STR              R1,[R0]
   34 0000001A 4770            BX               LR
   35 0000001C                 ENDP
   36 0000001C         
   37 0000001C         
   38 0000001C         
   39 0000001C         jd_asm_systick_init
                               PROC                         ;systickåˆå§‹åŒ–ï¼
                                                            Œhalåº“å·²ç»åˆå§‹
                                                            åŒ–ï¼Œè¿™é‡Œä¸å¯è
                                                            °ƒç”¨
   40 0000001C                 EXPORT           jd_asm_systick_init
   41 0000001C B672            CPSID            i           ;å…³ä¸­æ–­
   42 0000001E         



ARM Macro Assembler    Page 2 


   43 0000001E 4812            LDR              R0, =JD_SYSTICK_CTRL ; åŠ è½½JD
                                                            _SYSTICK_CTRLçš„åœ°
                                                            å€
   44 00000020 F04F 0100       MOV              R1, #0
   45 00000024 6001            STR              R1, [R0]    ; å…ˆåœæ­¢SysTickï
                                                            ¼Œä»¥é˜²æ„å¤–äº§ç”
                                                            Ÿå¼‚å¸¸è¯·æ±‚
   46 00000026         
   47 00000026 F240 31FF       LDR              R1, =0x3FF  ; è®©SysTickæ¯1024
                                                            å‘¨æœŸè®¡å®Œä¸€æ¬¡ã
                                                            €‚
   48 0000002A 6041            STR              R1, [R0,#4] ; å†™å…¥é‡è£…è½½çš
                                                            „å€¼
   49 0000002C 6081            STR              R1, [R0,#8] ; å¾€STCVRä¸­å†™ä»»
                                                            æ„çš„æ•°ï¼Œä»¥ç¡®ä
                                                            ¿æ¸…é™¤COUNTFLAGæ 
                                                            ‡å¿—
   50 0000002E         
   51 0000002E F04F 0107       MOV              R1, #0x7    ; é€‰æ‹©FCLKä½œä¸ºæ
                                                            —¶é’Ÿæºï¼Œå¹¶ä½¿èƒ
                                                            ½SysTickåŠå…¶å¼‚å¸
                                                            ¸è¯·æ±‚
   52 00000032 6001            STR              R1, [R0]    ; å†™å…¥æ•°å€¼ï¼Œå¼
                                                            €å¯å®šæ—¶å™¨
   53 00000034         
   54 00000034 B662            CPSIE            i           ;å¼€ä¸­æ–­
   55 00000036 4770            BX               LR
   56 00000038                 ENDP
   57 00000038         
   58 00000038         jd_asm_cps_disable
                               PROC                         ;é™¤èƒ½åœ¨ NMI å’Œç
                                                            ¡¬ fault ä¹‹å¤–çš„æ
                                                            ‰€æœ‰å¼‚å¸¸
   59 00000038                 EXPORT           jd_asm_cps_disable
   60 00000038 B672            CPSID            i           ;å…³ä¸­æ–­
   61 0000003A 4770            BX               LR          ;
   62 0000003C                 ENDP
   63 0000003C         
   64 0000003C         jd_asm_cps_enable
                               PROC                         ;ä½¿èƒ½ä¸­æ–­
   65 0000003C                 EXPORT           jd_asm_cps_enable
   66 0000003C B662            CPSIE            i           ;å¼€ä¸­æ–­
   67 0000003E 4770            BX               LR          ;
   68 00000040                 ENDP
   69 00000040         
   70 00000040         
   71 00000040         jd_asm_pendsv_handler
                               PROC                         ;åˆ‡æ¢ä¸Šä¸‹æ–‡
   72 00000040                 EXPORT           jd_asm_pendsv_handler
   73 00000040 B672            CPSID            i           ;å…³ä¸­æ–­
   74 00000042         
   75 00000042 4668            MOV              R0,SP
   76 00000044 E920 0FF0       STMFD            R0!,{R4-R11}
   77 00000048         
   78 00000048         ;ä¿æŠ¤ç°åœºï¼Œå°†å †æ ˆæŒ‡é’ˆä¼ å‡º
   79 00000048 4908            LDR              R1,=jd_task_stack_sp
   80 0000004A 6809            LDR              R1,[R1]
   81 0000004C 6008            STR              R0,[R1]
   82 0000004E         



ARM Macro Assembler    Page 3 


   83 0000004E         ;å–ä¸‹ä¸€ä¸ªä»»åŠ¡çš„å †æ ˆæŒ‡é’ˆ,æ¢å¤ç°åœº
   84 0000004E 4908            LDR              R1,=jd_task_next_stack_sp
   85 00000050 6809            LDR              R1,[R1]
   86 00000052 6808            LDR              R0,[R1]
   87 00000054 E8B0 0FF0       LDMFD            R0!,{R4-R11}
   88 00000058 4685            MOV              SP,R0
   89 0000005A         
   90 0000005A B662            CPSIE            i           ;å¼€ä¸­æ–­
   91 0000005C 4770            BX               LR
   92 0000005E                 ENDP
   93 0000005E         ;é˜²æ­¢ç¼–è¯‘å™¨æŠ¥è­¦
   94 0000005E BF00            NOP
   95 00000060                 END
              E000ED23 
              E000ED04 
              E000E010 
              00000000 
              00000000 
Command Line: --debug --xref --diag_suppress=9931 --cpu=Cortex-M3 --apcs=interw
ork --depend=jdos\jdos_1.d -ojdos\jdos_1.o -I.\RTE\_jdos -ID:\Keil_V5\Packs\ARM
\CMSIS\5.5.1\CMSIS\Core\Include -ID:\Keil_V5\Packs\Keil\STM32F1xx_DFP\2.3.0\Dev
ice\Include --predefine="__MICROLIB SETA 1" --predefine="__UVISION_VERSION SETA
 528" --predefine="_RTE_ SETA 1" --predefine="STM32F10X_HD SETA 1" --list=jdos.
lst ..\jdos.s



ARM Macro Assembler    Page 1 Alphabetic symbol ordering
Relocatable symbols

.text 00000000

Symbol: .text
   Definitions
      At line 7 in file ..\jdos.s
   Uses
      None
Comment: .text unused
jd_asm_cps_disable 00000038

Symbol: jd_asm_cps_disable
   Definitions
      At line 58 in file ..\jdos.s
   Uses
      At line 59 in file ..\jdos.s
Comment: jd_asm_cps_disable used once
jd_asm_cps_enable 0000003C

Symbol: jd_asm_cps_enable
   Definitions
      At line 64 in file ..\jdos.s
   Uses
      At line 65 in file ..\jdos.s
Comment: jd_asm_cps_enable used once
jd_asm_pendsv_handler 00000040

Symbol: jd_asm_pendsv_handler
   Definitions
      At line 71 in file ..\jdos.s
   Uses
      At line 72 in file ..\jdos.s
Comment: jd_asm_pendsv_handler used once
jd_asm_pendsv_putup 00000012

Symbol: jd_asm_pendsv_putup
   Definitions
      At line 29 in file ..\jdos.s
   Uses
      At line 30 in file ..\jdos.s
Comment: jd_asm_pendsv_putup used once
jd_asm_systick_init 0000001C

Symbol: jd_asm_systick_init
   Definitions
      At line 39 in file ..\jdos.s
   Uses
      At line 40 in file ..\jdos.s
Comment: jd_asm_systick_init used once
jd_asm_task_first_switch 00000000

Symbol: jd_asm_task_first_switch
   Definitions
      At line 11 in file ..\jdos.s
   Uses
      At line 12 in file ..\jdos.s
Comment: jd_asm_task_first_switch used once
7 symbols



ARM Macro Assembler    Page 1 Alphabetic symbol ordering
Absolute symbols

JD_ICRS E000ED04

Symbol: JD_ICRS
   Definitions
      At line 1 in file ..\jdos.s
   Uses
      At line 31 in file ..\jdos.s
Comment: JD_ICRS used once
JD_PRI_14 E000ED23

Symbol: JD_PRI_14
   Definitions
      At line 2 in file ..\jdos.s
   Uses
      At line 15 in file ..\jdos.s
Comment: JD_PRI_14 used once
JD_SYSTICK_CTRL E000E010

Symbol: JD_SYSTICK_CTRL
   Definitions
      At line 3 in file ..\jdos.s
   Uses
      At line 43 in file ..\jdos.s
Comment: JD_SYSTICK_CTRL used once
3 symbols



ARM Macro Assembler    Page 1 Alphabetic symbol ordering
External symbols

jd_task_next_stack_sp 00000000

Symbol: jd_task_next_stack_sp
   Definitions
      At line 6 in file ..\jdos.s
   Uses
      At line 84 in file ..\jdos.s
Comment: jd_task_next_stack_sp used once
jd_task_stack_sp 00000000

Symbol: jd_task_stack_sp
   Definitions
      At line 5 in file ..\jdos.s
   Uses
      At line 79 in file ..\jdos.s
Comment: jd_task_stack_sp used once
2 symbols
348 symbols in table
